; Function Attrs: mustprogress nofree norecurse nosync nounwind willreturn memory(read, inaccessiblemem: none) uwtable
define dso_local i64 @array_prepend_support(ptr noundef readonly captures(none) %0) local_unnamed_addr #4 {
  %2 = getelementptr inbounds nuw i8, ptr %0, i64 32
  %3 = load i64, ptr %2, align 8
  %4 = inttoptr i64 %3 to ptr
  %5 = load i32, ptr %4, align 4
  %6 = icmp eq i32 %5, 463
  br i1 %6, label %7, label %28

7:                                                ; preds = %1
  %8 = getelementptr inbounds nuw i8, ptr %4, i64 8
  %9 = load ptr, ptr %8, align 8
  %10 = getelementptr i8, ptr %9, i64 16
  %.val = load ptr, ptr %10, align 8
  %11 = getelementptr inbounds nuw i8, ptr %.val, i64 8
  %12 = load ptr, ptr %11, align 8
  %.not = icmp eq ptr %12, null
  br i1 %.not, label %28, label %13

13:                                               ; preds = %7
  %14 = load i32, ptr %12, align 4
  %15 = icmp eq i32 %14, 8
  br i1 %15, label %16, label %28

16:                                               ; preds = %13
  %17 = getelementptr inbounds nuw i8, ptr %12, i64 4
  %18 = load i32, ptr %17, align 4
  %19 = icmp eq i32 %18, 0
  br i1 %19, label %20, label %28

20:                                               ; preds = %16
  %21 = getelementptr inbounds nuw i8, ptr %12, i64 8
  %22 = load i32, ptr %21, align 4
  %23 = getelementptr inbounds nuw i8, ptr %4, i64 16
  %24 = load i32, ptr %23, align 8
  %25 = icmp eq i32 %22, %24
  %26 = ptrtoint ptr %12 to i64
  %27 = select i1 %25, i64 %26, i64 0
  br label %28

28:                                               ; preds = %20, %7, %13, %16, %1
  %.0 = phi i64 [ 0, %1 ], [ 0, %16 ], [ 0, %13 ], [ 0, %7 ], [ %27, %20 ]
  ret i64 %.0
}